; Function Attrs: mustprogress uwtable
define void @_ZN6google8protobuf8internal9ArenaImpl10AddCleanupEPvPFvS3_E(ptr noundef nonnull align 8 dereferenceable(40) %0, ptr noundef %1, ptr noundef %2) local_unnamed_addr #6 align 2 {
  %4 = tail call noundef nonnull align 64 dereferenceable(64) ptr @llvm.threadlocal.address.p0(ptr align 64 @_ZN6google8protobuf8internal9ArenaImpl13thread_cache_E)
  %5 = getelementptr inbounds nuw i8, ptr %4, i64 8
  %6 = load i64, ptr %5, align 8, !tbaa !52
  %7 = getelementptr inbounds nuw i8, ptr %0, i64 24
  %8 = load i64, ptr %7, align 8, !tbaa !40
  %9 = icmp eq i64 %6, %8
  br i1 %9, label %_ZN6google8protobuf8internal9ArenaImpl29GetSerialArenaFromThreadCacheEPPNS1_11SerialArenaE.exit.thread, label %_ZN6google8protobuf8internal9ArenaImpl29GetSerialArenaFromThreadCacheEPPNS1_11SerialArenaE.exit, !prof !70

_ZN6google8protobuf8internal9ArenaImpl29GetSerialArenaFromThreadCacheEPPNS1_11SerialArenaE.exit.thread: ; preds = %3
  %10 = getelementptr inbounds nuw i8, ptr %4, i64 16
  %11 = load ptr, ptr %10, align 16, !tbaa !51
  br label %18

_ZN6google8protobuf8internal9ArenaImpl29GetSerialArenaFromThreadCacheEPPNS1_11SerialArenaE.exit: ; preds = %3
  %12 = getelementptr inbounds nuw i8, ptr %0, i64 8
  %13 = load atomic i64, ptr %12 acquire, align 8
  %.not.i = icmp eq i64 %13, 0
  br i1 %.not.i, label %_ZN6google8protobuf8internal9ArenaImpl18GetSerialArenaFastEPPNS1_11SerialArenaE.exit, label %14, !prof !39

14:                                               ; preds = %_ZN6google8protobuf8internal9ArenaImpl29GetSerialArenaFromThreadCacheEPPNS1_11SerialArenaE.exit
  %.0.i.i = inttoptr i64 %13 to ptr
  %15 = getelementptr inbounds nuw i8, ptr %.0.i.i, i64 8
  %16 = load ptr, ptr %15, align 8, !tbaa !47
  %17 = icmp eq ptr %16, %4
  br i1 %17, label %18, label %_ZN6google8protobuf8internal9ArenaImpl18GetSerialArenaFastEPPNS1_11SerialArenaE.exit, !prof !71

18:                                               ; preds = %14, %_ZN6google8protobuf8internal9ArenaImpl29GetSerialArenaFromThreadCacheEPPNS1_11SerialArenaE.exit.thread
  %.0.ph = phi ptr [ %11, %_ZN6google8protobuf8internal9ArenaImpl29GetSerialArenaFromThreadCacheEPPNS1_11SerialArenaE.exit.thread ], [ %.0.i.i, %14 ]
  %19 = getelementptr inbounds nuw i8, ptr %.0.ph, i64 56
  %20 = load ptr, ptr %19, align 8, !tbaa !54
  %21 = getelementptr inbounds nuw i8, ptr %.0.ph, i64 64
  %22 = load ptr, ptr %21, align 8, !tbaa !69
  %23 = icmp eq ptr %20, %22
  br i1 %23, label %24, label %25, !prof !39

24:                                               ; preds = %18
  tail call void @_ZN6google8protobuf8internal11SerialArena18AddCleanupFallbackEPvPFvS3_E(ptr noundef nonnull align 8 dereferenceable(72) %.0.ph, ptr noundef %1, ptr noundef %2)
  br label %_ZN6google8protobuf8internal11SerialArena10AddCleanupEPvPFvS3_E.exit

25:                                               ; preds = %18
  store ptr %1, ptr %20, align 8, !tbaa !59
  %26 = getelementptr inbounds nuw i8, ptr %20, i64 8
  store ptr %2, ptr %26, align 8, !tbaa !57
  %27 = getelementptr inbounds nuw i8, ptr %20, i64 16
  store ptr %27, ptr %19, align 8, !tbaa !54
  br label %_ZN6google8protobuf8internal11SerialArena10AddCleanupEPvPFvS3_E.exit

_ZN6google8protobuf8internal9ArenaImpl18GetSerialArenaFastEPPNS1_11SerialArenaE.exit: ; preds = %_ZN6google8protobuf8internal9ArenaImpl29GetSerialArenaFromThreadCacheEPPNS1_11SerialArenaE.exit, %14
  tail call void @_ZN6google8protobuf8internal9ArenaImpl18AddCleanupFallbackEPvPFvS3_E(ptr noundef nonnull align 8 dereferenceable(40) %0, ptr noundef %1, ptr noundef %2)
  br label %_ZN6google8protobuf8internal11SerialArena10AddCleanupEPvPFvS3_E.exit

_ZN6google8protobuf8internal11SerialArena10AddCleanupEPvPFvS3_E.exit: ; preds = %25, %24, %_ZN6google8protobuf8internal9ArenaImpl18GetSerialArenaFastEPPNS1_11SerialArenaE.exit
  ret void
}